target datalayout = "e-m:e-p270:32:32-p271:32:32-p272:64:64-i64:64-f80:128-n8:16:32:64-S128"
target triple = "x86_64-pc-linux-gnu"

@.str = private unnamed_addr constant [6 x i8] c"%d %d\00", align 1
@m = common dso_local global i32 0, align 4
@n = common dso_local global i32 0, align 4
@.str.1 = private unnamed_addr constant [3 x i8] c"%d\00", align 1
@a = common dso_local global [100 x i32] zeroinitializer, align 16
@b = common dso_local global [100 x i32] zeroinitializer, align 16
@.str.2 = private unnamed_addr constant [4 x i8] c" %d\00", align 1

; Function Attrs: noinline nounwind uwtable
define dso_local void @insert() #0 {
  %1 = alloca i32, align 4
  %2 = call i32 (i8*, ...) @__isoc99_scanf(i8* getelementptr inbounds ([6 x i8], [6 x i8]* @.str, i64 0, i64 0), i32* @m, i32* @n)
  store i32 0, i32* %1, align 4
  br label %3

3:                                                ; preds = %12, %0
  %4 = load i32, i32* %1, align 4
  %5 = load i32, i32* @m, align 4
  %6 = icmp slt i32 %4, %5
  br i1 %6, label %7, label %15

7:                                                ; preds = %3
  %8 = load i32, i32* %1, align 4
  %9 = sext i32 %8 to i64
  %10 = getelementptr inbounds [100 x i32], [100 x i32]* @a, i64 0, i64 %9
  %11 = call i32 (i8*, ...) @__isoc99_scanf(i8* getelementptr inbounds ([3 x i8], [3 x i8]* @.str.1, i64 0, i64 0), i32* %10)
  br label %12

12:                                               ; preds = %7
  %13 = load i32, i32* %1, align 4
  %14 = add nsw i32 %13, 1
  store i32 %14, i32* %1, align 4
  br label %3

15:                                               ; preds = %3
  store i32 0, i32* %1, align 4
  br label %16

16:                                               ; preds = %25, %15
  %17 = load i32, i32* %1, align 4
  %18 = load i32, i32* @n, align 4
  %19 = icmp slt i32 %17, %18
  br i1 %19, label %20, label %28

20:                                               ; preds = %16
  %21 = load i32, i32* %1, align 4
  %22 = sext i32 %21 to i64
  %23 = getelementptr inbounds [100 x i32], [100 x i32]* @b, i64 0, i64 %22
  %24 = call i32 (i8*, ...) @__isoc99_scanf(i8* getelementptr inbounds ([3 x i8], [3 x i8]* @.str.1, i64 0, i64 0), i32* %23)
  br label %25

25:                                               ; preds = %20
  %26 = load i32, i32* %1, align 4
  %27 = add nsw i32 %26, 1
  store i32 %27, i32* %1, align 4
  br label %16

28:                                               ; preds = %16
  ret void
}

; Function Attrs: noinline nounwind uwtable
define dso_local void @paixu(i32* %0, i32* %1) #0 {
  %3 = alloca i32*, align 8
  %4 = alloca i32*, align 8
  %5 = alloca i32, align 4
  %6 = alloca i32, align 4
  %7 = alloca i32, align 4
  store i32* %0, i32** %3, align 8
  store i32* %1, i32** %4, align 8
  store i32 1, i32* %6, align 4
  br label %8

8:                                                ; preds = %58, %2
  %9 = load i32, i32* %6, align 4
  %10 = load i32, i32* @m, align 4
  %11 = icmp slt i32 %9, %10
  br i1 %11, label %12, label %61

12:                                               ; preds = %8
  store i32 0, i32* %5, align 4
  br label %13

13:                                               ; preds = %54, %12
  %14 = load i32, i32* %5, align 4
  %15 = load i32, i32* @m, align 4
  %16 = sub nsw i32 %15, 1
  %17 = icmp slt i32 %14, %16
  br i1 %17, label %18, label %57

18:                                               ; preds = %13
  %19 = load i32*, i32** %3, align 8
  %20 = load i32, i32* %5, align 4
  %21 = sext i32 %20 to i64
  %22 = getelementptr inbounds i32, i32* %19, i64 %21
  %23 = load i32, i32* %22, align 4
  %24 = load i32*, i32** %3, align 8
  %25 = load i32, i32* %5, align 4
  %26 = sext i32 %25 to i64
  %27 = getelementptr inbounds i32, i32* %24, i64 %26
  %28 = getelementptr inbounds i32, i32* %27, i64 1
  %29 = load i32, i32* %28, align 4
  %30 = icmp sgt i32 %23, %29
  br i1 %30, label %31, label %53

31:                                               ; preds = %18
  %32 = load i32*, i32** %3, align 8
  %33 = load i32, i32* %5, align 4
  %34 = sext i32 %33 to i64
  %35 = getelementptr inbounds i32, i32* %32, i64 %34
  %36 = load i32, i32* %35, align 4
  store i32 %36, i32* %7, align 4
  %37 = load i32*, i32** %3, align 8
  %38 = load i32, i32* %5, align 4
  %39 = sext i32 %38 to i64
  %40 = getelementptr inbounds i32, i32* %37, i64 %39
  %41 = getelementptr inbounds i32, i32* %40, i64 1
  %42 = load i32, i32* %41, align 4
  %43 = load i32*, i32** %3, align 8
  %44 = load i32, i32* %5, align 4
  %45 = sext i32 %44 to i64
  %46 = getelementptr inbounds i32, i32* %43, i64 %45
  store i32 %42, i32* %46, align 4
  %47 = load i32, i32* %7, align 4
  %48 = load i32*, i32** %3, align 8
  %49 = load i32, i32* %5, align 4
  %50 = sext i32 %49 to i64
  %51 = getelementptr inbounds i32, i32* %48, i64 %50
  %52 = getelementptr inbounds i32, i32* %51, i64 1
  store i32 %47, i32* %52, align 4
  br label %53

53:                                               ; preds = %31, %18
  br label %54

54:                                               ; preds = %53
  %55 = load i32, i32* %5, align 4
  %56 = add nsw i32 %55, 1
  store i32 %56, i32* %5, align 4
  br label %13

57:                                               ; preds = %13
  br label %58

58:                                               ; preds = %57
  %59 = load i32, i32* %6, align 4
  %60 = add nsw i32 %59, 1
  store i32 %60, i32* %6, align 4
  br label %8

61:                                               ; preds = %8
  store i32 1, i32* %6, align 4
  br label %62

62:                                               ; preds = %112, %61
  %63 = load i32, i32* %6, align 4
  %64 = load i32, i32* @n, align 4
  %65 = icmp slt i32 %63, %64
  br i1 %65, label %66, label %115

66:                                               ; preds = %62
  store i32 0, i32* %5, align 4
  br label %67

67:                                               ; preds = %108, %66
  %68 = load i32, i32* %5, align 4
  %69 = load i32, i32* @n, align 4
  %70 = sub nsw i32 %69, 1
  %71 = icmp slt i32 %68, %70
  br i1 %71, label %72, label %111

72:                                               ; preds = %67
  %73 = load i32*, i32** %4, align 8
  %74 = load i32, i32* %5, align 4
  %75 = sext i32 %74 to i64
  %76 = getelementptr inbounds i32, i32* %73, i64 %75
  %77 = load i32, i32* %76, align 4
  %78 = load i32*, i32** %4, align 8
  %79 = load i32, i32* %5, align 4
  %80 = sext i32 %79 to i64
  %81 = getelementptr inbounds i32, i32* %78, i64 %80
  %82 = getelementptr inbounds i32, i32* %81, i64 1
  %83 = load i32, i32* %82, align 4
  %84 = icmp sgt i32 %77, %83
  br i1 %84, label %85, label %107

85:                                               ; preds = %72
  %86 = load i32*, i32** %4, align 8
  %87 = load i32, i32* %5, align 4
  %88 = sext i32 %87 to i64
  %89 = getelementptr inbounds i32, i32* %86, i64 %88
  %90 = load i32, i32* %89, align 4
  store i32 %90, i32* %7, align 4
  %91 = load i32*, i32** %4, align 8
  %92 = getelementptr inbounds i32, i32* %91, i64 1
  %93 = load i32, i32* %5, align 4
  %94 = sext i32 %93 to i64
  %95 = getelementptr inbounds i32, i32* %92, i64 %94
  %96 = load i32, i32* %95, align 4
  %97 = load i32*, i32** %4, align 8
  %98 = load i32, i32* %5, align 4
  %99 = sext i32 %98 to i64
  %100 = getelementptr inbounds i32, i32* %97, i64 %99
  store i32 %96, i32* %100, align 4
  %101 = load i32, i32* %7, align 4
  %102 = load i32*, i32** %4, align 8
  %103 = load i32, i32* %5, align 4
  %104 = sext i32 %103 to i64
  %105 = getelementptr inbounds i32, i32* %102, i64 %104
  %106 = getelementptr inbounds i32, i32* %105, i64 1
  store i32 %101, i32* %106, align 4
  br label %107

107:                                              ; preds = %85, %72
  br label %108

108:                                              ; preds = %107
  %109 = load i32, i32* %5, align 4
  %110 = add nsw i32 %109, 1
  store i32 %110, i32* %5, align 4
  br label %67

111:                                              ; preds = %67
  br label %112

112:                                              ; preds = %111
  %113 = load i32, i32* %6, align 4
  %114 = add nsw i32 %113, 1
  store i32 %114, i32* %6, align 4
  br label %62

115:                                              ; preds = %62
  ret void
}

; Function Attrs: noinline nounwind uwtable
define dso_local void @hebing() #0 {
  %1 = alloca i32, align 4
  store i32 0, i32* %1, align 4
  br label %2

2:                                                ; preds = %16, %0
  %3 = load i32, i32* %1, align 4
  %4 = load i32, i32* @n, align 4
  %5 = icmp slt i32 %3, %4
  br i1 %5, label %6, label %19

6:                                                ; preds = %2
  %7 = load i32, i32* %1, align 4
  %8 = sext i32 %7 to i64
  %9 = getelementptr inbounds [100 x i32], [100 x i32]* @b, i64 0, i64 %8
  %10 = load i32, i32* %9, align 4
  %11 = load i32, i32* @m, align 4
  %12 = load i32, i32* %1, align 4
  %13 = add nsw i32 %11, %12
  %14 = sext i32 %13 to i64
  %15 = getelementptr inbounds [100 x i32], [100 x i32]* @a, i64 0, i64 %14
  store i32 %10, i32* %15, align 4
  br label %16

16:                                               ; preds = %6
  %17 = load i32, i32* %1, align 4
  %18 = add nsw i32 %17, 1
  store i32 %18, i32* %1, align 4
  br label %2

19:                                               ; preds = %2
  ret void
}

; Function Attrs: noinline nounwind uwtable
define dso_local void @output() #0 {
  %1 = alloca i32, align 4
  %2 = load i32, i32* getelementptr inbounds ([100 x i32], [100 x i32]* @a, i64 0, i64 0), align 16
  %3 = call i32 (i8*, ...) @printf(i8* getelementptr inbounds ([3 x i8], [3 x i8]* @.str.1, i64 0, i64 0), i32 %2)
  store i32 1, i32* %1, align 4
  br label %4

4:                                                ; preds = %16, %0
  %5 = load i32, i32* %1, align 4
  %6 = load i32, i32* @m, align 4
  %7 = load i32, i32* @n, align 4
  %8 = add nsw i32 %6, %7
  %9 = icmp slt i32 %5, %8
  br i1 %9, label %10, label %19

10:                                               ; preds = %4
  %11 = load i32, i32* %1, align 4
  %12 = sext i32 %11 to i64
  %13 = getelementptr inbounds [100 x i32], [100 x i32]* @a, i64 0, i64 %12
  %14 = load i32, i32* %13, align 4
  %15 = call i32 (i8*, ...) @printf(i8* getelementptr inbounds ([4 x i8], [4 x i8]* @.str.2, i64 0, i64 0), i32 %14)
  br label %16

16:                                               ; preds = %10
  %17 = load i32, i32* %1, align 4
  %18 = add nsw i32 %17, 1
  store i32 %18, i32* %1, align 4
  br label %4

19:                                               ; preds = %4
  ret void
}

; Function Attrs: noinline nounwind uwtable
define dso_local void @main() #0 {
  call void @insert()
  call void @paixu(i32* getelementptr inbounds ([100 x i32], [100 x i32]* @a, i64 0, i64 0), i32* getelementptr inbounds ([100 x i32], [100 x i32]* @b, i64 0, i64 0))
  call void @hebing()
  call void @output()
  ret void
}